; Function Attrs: nounwind uwtable
define ptr @l_Lean_Elab_WF_GuessLex_complexMeasures(ptr noundef readonly captures(none) %0, ptr noundef readonly captures(none) %1, ptr noundef readonly captures(none) %2, ptr noundef readonly captures(none) %3, ptr noundef %4, ptr noundef %5, ptr noundef %6, ptr noundef %7, ptr noundef %8) local_unnamed_addr #1 {
  %10 = getelementptr i8, ptr %0, i64 8
  %.val = load i64, ptr %10, align 8, !tbaa !12
  %11 = shl i64 %.val, 1
  %12 = or disjoint i64 %11, 1
  %13 = inttoptr i64 %12 to ptr
  %14 = and i64 %.val, 9223372036854775807
  %15 = shl i64 %.val, 3
  %16 = add i64 %15, 24
  %17 = tail call ptr @lean_alloc_object(i64 noundef %16) #8
  store i32 1, ptr %17, align 4, !tbaa !8
  %18 = getelementptr inbounds nuw i8, ptr %17, i64 4
  %19 = load i32, ptr %18, align 4
  %20 = and i32 %19, 65535
  %21 = or disjoint i32 %20, -167772160
  store i32 %21, ptr %18, align 4
  %22 = getelementptr inbounds nuw i8, ptr %17, i64 8
  store i64 0, ptr %22, align 8, !tbaa !12
  %23 = getelementptr inbounds nuw i8, ptr %17, i64 16
  store i64 %14, ptr %23, align 8, !tbaa !12
  %24 = tail call ptr @l_Array_mapFinIdxM_map___at_Lean_Elab_WF_GuessLex_complexMeasures___spec__11(ptr poison, ptr noundef %1, ptr noundef %2, ptr noundef %3, ptr poison, ptr noundef nonnull %13, ptr noundef nonnull inttoptr (i64 1 to ptr), ptr nonnull poison, ptr noundef nonnull %17, ptr noundef %4, ptr noundef %5, ptr noundef %6, ptr noundef %7, ptr noundef %8)
  ret ptr %24
}